target datalayout = "e-m:e-p270:32:32-p271:32:32-p272:64:64-i64:64-i128:128-f80:128-n8:16:32:64-S128"
target triple = "x86_64-pc-linux-gnu"

%struct.ssl_connection_st = type { %struct.ssl_st, ptr, i32, ptr, ptr, ptr, i32, ptr, i32, i32, i32, i32, %struct.OSSL_TIME, %struct.OSSL_TIME, %struct.ossl_statem_st, i32, ptr, ptr, i64, i64, i64, %struct.ossl_quic_tls_callbacks_st, ptr, ptr, %struct.anon, ptr, ptr, ptr, i32, ptr, %struct.ssl_dane_st, ptr, ptr, ptr, ptr, i32, [64 x i8], [64 x i8], [64 x i8], [64 x i8], [64 x i8], [64 x i8], [64 x i8], [64 x i8], [64 x i8], [64 x i8], [64 x i8], [64 x i8], ptr, [64 x i8], i64, i32, i64, [32 x i8], ptr, ptr, ptr, i64, ptr, [32 x i8], i64, i32, ptr, ptr, i32, i32, ptr, ptr, ptr, ptr, ptr, i64, ptr, ptr, i64, i32, i32, i32, i64, i32, i32, i64, i64, i64, %struct.anon.1, ptr, i32, ptr, ptr, ptr, i32, ptr, ptr, ptr, i32, i32, i32, i32, ptr, i64, i32, ptr, %struct.srp_ctx_st, ptr, %struct.record_layer_st, ptr, ptr, ptr, ptr, i64, i32, i32, i32, i64, i64, i64, ptr, ptr, ptr, ptr, ptr, i64, ptr, i64, ptr, i64 }
%struct.ssl_st = type { i32, ptr, ptr, ptr, %struct.CRYPTO_REF_COUNT, ptr, %struct.crypto_ex_data_st }
%struct.CRYPTO_REF_COUNT = type { i32 }
%struct.crypto_ex_data_st = type { ptr, ptr }
%struct.OSSL_TIME = type { i64 }
%struct.ossl_statem_st = type { i32, i32, i32, i32, i32, i32, i32, i32, i32, i32, i32, i32, i32, ptr, ptr, ptr, i8 }
%struct.ossl_quic_tls_callbacks_st = type { ptr, ptr, ptr, ptr, ptr, ptr }
%struct.anon = type { i64, [32 x i8], [32 x i8], ptr, ptr, i32, i32, i32, i32, [2 x i8], i32, i32, i32, i32, %struct.anon.0, [64 x i8], i64, [64 x i8], i64, i32, i32, ptr, i64, ptr, i64, i32, i8, i8, i16, ptr, i16 }
%struct.anon.0 = type { [128 x i8], i64, [128 x i8], i64, i64, i32, ptr, ptr, [4 x ptr], [4 x i16], i64, i32, ptr, i64, ptr, i64, ptr, ptr, ptr, i32, i64, ptr, i32, ptr, i64, ptr, i64, ptr, i64, ptr, ptr, ptr, ptr, i64, i64, ptr, ptr, i32, i32, i32, i32 }
%struct.ssl_dane_st = type { ptr, ptr, ptr, ptr, ptr, i32, i32, i32, i64 }
%struct.anon.1 = type { [29 x i8], ptr, ptr, ptr, i32, ptr, i16, i32, %struct.anon.2, i32, i32, i64, ptr, i64, ptr, i64, ptr, i64, ptr, i64, ptr, i64, ptr, ptr, ptr, ptr, ptr, ptr, ptr, i64, ptr, i64, i32, i32, i32, i32, ptr, i64, i32, i8, i32, [4 x i32], i32, i8, i8, i8, i8 }
%struct.anon.2 = type { ptr, ptr, ptr, i64 }
%struct.srp_ctx_st = type { ptr, ptr, ptr, ptr, ptr, ptr, ptr, ptr, ptr, ptr, ptr, ptr, ptr, ptr, i32, i64 }
%struct.record_layer_st = type { ptr, ptr, ptr, ptr, ptr, ptr, ptr, ptr, i64, i32, i64, [4 x i8], i64, i64, i8, ptr, i32, ptr, ptr, ptr, i64, i64, i64, i64, [32 x %struct.tls_record_st] }
%struct.tls_record_st = type { ptr, i32, i8, ptr, ptr, i64, i64, i16, [8 x i8] }
%struct.ssl_ctx_st = type { ptr, ptr, ptr, ptr, ptr, ptr, ptr, i64, ptr, ptr, i32, %struct.OSSL_TIME, ptr, ptr, ptr, %struct.anon.4, %struct.CRYPTO_REF_COUNT, ptr, ptr, ptr, ptr, ptr, ptr, ptr, ptr, ptr, %struct.crypto_ex_data_st, ptr, ptr, ptr, ptr, ptr, ptr, ptr, i64, i32, i32, i32, i64, ptr, ptr, i32, ptr, ptr, i32, i64, [32 x i8], ptr, ptr, ptr, i32, ptr, ptr, ptr, i64, i64, i64, i64, ptr, ptr, ptr, ptr, ptr, %struct.anon.5, ptr, ptr, ptr, ptr, %struct.srp_ctx_st, %struct.dane_ctx_st, ptr, ptr, ptr, ptr, i32, i32, ptr, ptr, i64, i64, ptr, ptr, ptr, i64, ptr, ptr, i32, ptr, ptr, ptr, [14 x i32], [24 x ptr], [14 x ptr], [14 x i64], i64, ptr, ptr, ptr, i64, i64, ptr, i64, i64, i32, i32, i32, i32, ptr, i64, ptr, i64, i64, ptr, ptr }
%struct.anon.4 = type { i32, i32, i32, i32, i32, i32, i32, i32, i32, i32, i32 }
%struct.anon.5 = type { ptr, ptr, [16 x i8], ptr, ptr, ptr, ptr, ptr, i32, i8, i64, ptr, i64, ptr, i64, ptr, i64, ptr, ptr, i64, ptr, ptr, ptr, i64, ptr, ptr, ptr, ptr, [32 x i8] }
%struct.dane_ctx_st = type { ptr, ptr, i8, i64 }

; Function Attrs: nounwind uwtable
define i32 @ossl_gost_ukm(ptr noundef %0, ptr noundef %1) #0 {
  %3 = alloca i32, align 4
  %4 = alloca ptr, align 8
  %5 = alloca ptr, align 8
  %6 = alloca ptr, align 8
  %7 = alloca i32, align 4
  %8 = alloca ptr, align 8
  %9 = alloca ptr, align 8
  %10 = alloca i32, align 4
  store ptr %0, ptr %4, align 8, !tbaa !3
  store ptr %1, ptr %5, align 8, !tbaa !122
  call void @llvm.lifetime.start.p0(i64 8, ptr %6) #8
  store ptr null, ptr %6, align 8, !tbaa !196
  call void @llvm.lifetime.start.p0(i64 4, ptr %7) #8
  call void @llvm.lifetime.start.p0(i64 8, ptr %8) #8
  %11 = load ptr, ptr %4, align 8, !tbaa !3
  %12 = getelementptr inbounds nuw %struct.ssl_connection_st, ptr %11, i32 0, i32 0
  %13 = getelementptr inbounds nuw %struct.ssl_st, ptr %12, i32 0, i32 1
  %14 = load ptr, ptr %13, align 8, !tbaa !130
  store ptr %14, ptr %8, align 8, !tbaa !131
  call void @llvm.lifetime.start.p0(i64 8, ptr %9) #8
  %15 = load ptr, ptr %8, align 8, !tbaa !131
  %16 = getelementptr inbounds nuw %struct.ssl_ctx_st, ptr %15, i32 0, i32 0
  %17 = load ptr, ptr %16, align 8, !tbaa !139
  %18 = load ptr, ptr %8, align 8, !tbaa !131
  %19 = getelementptr inbounds nuw %struct.ssl_ctx_st, ptr %18, i32 0, i32 89
  %20 = load ptr, ptr %19, align 8, !tbaa !193
  %21 = call ptr @ssl_evp_md_fetch(ptr noundef %17, i32 noundef 982, ptr noundef %20)
  store ptr %21, ptr %9, align 8, !tbaa !201
  %22 = load ptr, ptr %9, align 8, !tbaa !201
  %23 = icmp eq ptr %22, null
  br i1 %23, label %24, label %25

24:                                               ; preds = %2
  store i32 0, ptr %3, align 4
  store i32 1, ptr %10, align 4
  br label %60

25:                                               ; preds = %2
  %26 = call ptr @EVP_MD_CTX_new()
  store ptr %26, ptr %6, align 8, !tbaa !196
  %27 = icmp eq ptr %26, null
  br i1 %27, label %54, label %28

28:                                               ; preds = %25
  %29 = load ptr, ptr %6, align 8, !tbaa !196
  %30 = load ptr, ptr %9, align 8, !tbaa !201
  %31 = call i32 @EVP_DigestInit(ptr noundef %29, ptr noundef %30)
  %32 = icmp sle i32 %31, 0
  br i1 %32, label %54, label %33

33:                                               ; preds = %28
  %34 = load ptr, ptr %6, align 8, !tbaa !196
  %35 = load ptr, ptr %4, align 8, !tbaa !3
  %36 = getelementptr inbounds nuw %struct.ssl_connection_st, ptr %35, i32 0, i32 24
  %37 = getelementptr inbounds nuw %struct.anon, ptr %36, i32 0, i32 2
  %38 = getelementptr inbounds [32 x i8], ptr %37, i64 0, i64 0
  %39 = call i32 @EVP_DigestUpdate(ptr noundef %34, ptr noundef %38, i64 noundef 32)
  %40 = icmp sle i32 %39, 0
  br i1 %40, label %54, label %41

41:                                               ; preds = %33
  %42 = load ptr, ptr %6, align 8, !tbaa !196
  %43 = load ptr, ptr %4, align 8, !tbaa !3
  %44 = getelementptr inbounds nuw %struct.ssl_connection_st, ptr %43, i32 0, i32 24
  %45 = getelementptr inbounds nuw %struct.anon, ptr %44, i32 0, i32 1
  %46 = getelementptr inbounds [32 x i8], ptr %45, i64 0, i64 0
  %47 = call i32 @EVP_DigestUpdate(ptr noundef %42, ptr noundef %46, i64 noundef 32)
  %48 = icmp sle i32 %47, 0
  br i1 %48, label %54, label %49

49:                                               ; preds = %41
  %50 = load ptr, ptr %6, align 8, !tbaa !196
  %51 = load ptr, ptr %5, align 8, !tbaa !122
  %52 = call i32 @EVP_DigestFinal_ex(ptr noundef %50, ptr noundef %51, ptr noundef %7)
  %53 = icmp sle i32 %52, 0
  br i1 %53, label %54, label %57

54:                                               ; preds = %49, %41, %33, %28, %25
  %55 = load ptr, ptr %6, align 8, !tbaa !196
  call void @EVP_MD_CTX_free(ptr noundef %55)
  %56 = load ptr, ptr %9, align 8, !tbaa !201
  call void @ssl_evp_md_free(ptr noundef %56)
  store i32 0, ptr %3, align 4
  store i32 1, ptr %10, align 4
  br label %60

57:                                               ; preds = %49
  %58 = load ptr, ptr %6, align 8, !tbaa !196
  call void @EVP_MD_CTX_free(ptr noundef %58)
  %59 = load ptr, ptr %9, align 8, !tbaa !201
  call void @ssl_evp_md_free(ptr noundef %59)
  store i32 1, ptr %3, align 4
  store i32 1, ptr %10, align 4
  br label %60

60:                                               ; preds = %57, %54, %24
  call void @llvm.lifetime.end.p0(i64 8, ptr %9) #8
  call void @llvm.lifetime.end.p0(i64 8, ptr %8) #8
  call void @llvm.lifetime.end.p0(i64 4, ptr %7) #8
  call void @llvm.lifetime.end.p0(i64 8, ptr %6) #8
  %61 = load i32, ptr %3, align 4
  ret i32 %61
}