; Function Attrs: nounwind uwtable
define range(i32 0, 2) i32 @ossl_gost_ukm(ptr noundef %0, ptr noundef %1) local_unnamed_addr #0 {
  %3 = alloca i32, align 4
  call void @llvm.lifetime.start.p0(i64 4, ptr nonnull %3) #8
  %4 = getelementptr inbounds nuw i8, ptr %0, i64 8
  %5 = load ptr, ptr %4, align 8, !tbaa !121
  %6 = load ptr, ptr %5, align 8, !tbaa !129
  %7 = getelementptr inbounds nuw i8, ptr %5, i64 1152
  %8 = load ptr, ptr %7, align 8, !tbaa !171
  %9 = tail call ptr @ssl_evp_md_fetch(ptr noundef %6, i32 noundef 982, ptr noundef %8) #8
  %10 = icmp eq ptr %9, null
  br i1 %10, label %28, label %11

11:                                               ; preds = %2
  %12 = tail call ptr @EVP_MD_CTX_new() #8
  %13 = icmp eq ptr %12, null
  br i1 %13, label %.sink.split, label %14

14:                                               ; preds = %11
  %15 = tail call i32 @EVP_DigestInit(ptr noundef nonnull %12, ptr noundef nonnull %9) #8
  %16 = icmp slt i32 %15, 1
  br i1 %16, label %.sink.split, label %17

17:                                               ; preds = %14
  %18 = getelementptr inbounds nuw i8, ptr %0, i64 392
  %19 = tail call i32 @EVP_DigestUpdate(ptr noundef nonnull %12, ptr noundef nonnull %18, i64 noundef 32) #8
  %20 = icmp slt i32 %19, 1
  br i1 %20, label %.sink.split, label %21

21:                                               ; preds = %17
  %22 = getelementptr inbounds nuw i8, ptr %0, i64 360
  %23 = tail call i32 @EVP_DigestUpdate(ptr noundef nonnull %12, ptr noundef nonnull %22, i64 noundef 32) #8
  %24 = icmp slt i32 %23, 1
  br i1 %24, label %.sink.split, label %25

25:                                               ; preds = %21
  %26 = call i32 @EVP_DigestFinal_ex(ptr noundef nonnull %12, ptr noundef %1, ptr noundef nonnull %3) #8
  %27 = icmp sgt i32 %26, 0
  %spec.select = zext i1 %27 to i32
  br label %.sink.split

.sink.split:                                      ; preds = %25, %11, %14, %17, %21
  %.0.ph = phi i32 [ 0, %21 ], [ 0, %17 ], [ 0, %14 ], [ 0, %11 ], [ %spec.select, %25 ]
  call void @EVP_MD_CTX_free(ptr noundef %12) #8
  call void @ssl_evp_md_free(ptr noundef nonnull %9) #8
  br label %28

28:                                               ; preds = %.sink.split, %2
  %.0 = phi i32 [ 0, %2 ], [ %.0.ph, %.sink.split ]
  call void @llvm.lifetime.end.p0(i64 4, ptr nonnull %3) #8
  ret i32 %.0
}